target datalayout = "e-m:e-p270:32:32-p271:32:32-p272:64:64-i64:64-i128:128-f80:128-n8:16:32:64-S128"
target triple = "x86_64-pc-linux-gnu"

%struct.Agobj_s = type { %struct.Agtag_s, ptr }
%struct.Agtag_s = type { i32, i64 }
%struct.Agnodeinfo_t = type { %struct.Agrec_s, ptr, ptr, %struct.pointf_s, double, double, %struct.boxf, double, double, double, double, double, ptr, ptr, ptr, i8, i8, i8, i8, i32, i32, i32, ptr, double, i8, i8, ptr, ptr, i8, i64, i8, i8, i8, ptr, ptr, %struct.elist, %struct.elist, %struct.elist, %struct.elist, %struct.elist, ptr, i32, ptr, i32, i32, double, %struct.elist, %struct.elist, %struct.elist, %struct.elist, ptr, i32, i32, i32, [1 x double] }
%struct.Agrec_s = type { ptr, ptr }
%struct.pointf_s = type { double, double }
%struct.boxf = type { %struct.pointf_s, %struct.pointf_s }
%struct.elist = type { ptr, i64 }
%struct.Agedge_s = type { %struct.Agobj_s, %struct.dtlink_s_, %struct.dtlink_s_, ptr }
%struct.dtlink_s_ = type { ptr, %union.anon }
%union.anon = type { ptr }

@stderr = external global ptr, align 8
@.str.1 = private unnamed_addr constant [58 x i8] c"integer overflow when trying to allocate %zu * %zu bytes\0A\00", align 1
@.str.2 = private unnamed_addr constant [49 x i8] c"out of memory when trying to allocate %zu bytes\0A\00", align 1

; Function Attrs: inlinehint nounwind uwtable
define internal ptr @gv_realloc(ptr noundef %0, i64 noundef %1, i64 noundef %2) #1 {
  %4 = alloca ptr, align 8
  %5 = alloca ptr, align 8
  %6 = alloca i64, align 8
  %7 = alloca i64, align 8
  %8 = alloca ptr, align 8
  store ptr %0, ptr %5, align 8, !tbaa !43
  store i64 %1, ptr %6, align 8, !tbaa !44
  store i64 %2, ptr %7, align 8, !tbaa !44
  %9 = load i64, ptr %7, align 8, !tbaa !44
  %10 = icmp eq i64 %9, 0
  br i1 %10, label %11, label %13

11:                                               ; preds = %3
  %12 = load ptr, ptr %5, align 8, !tbaa !43
  call void @free(ptr noundef %12) #11
  store ptr null, ptr %4, align 8
  br label %36

13:                                               ; preds = %3
  call void @llvm.lifetime.start.p0(i64 8, ptr %8) #11
  %14 = load ptr, ptr %5, align 8, !tbaa !43
  %15 = load i64, ptr %7, align 8, !tbaa !44
  %16 = call ptr @realloc(ptr noundef %14, i64 noundef %15) #15
  store ptr %16, ptr %8, align 8, !tbaa !43
  %17 = load ptr, ptr %8, align 8, !tbaa !43
  %18 = icmp eq ptr %17, null
  br i1 %18, label %19, label %23

19:                                               ; preds = %13
  %20 = load ptr, ptr @stderr, align 8, !tbaa !45
  %21 = load i64, ptr %7, align 8, !tbaa !44
  %22 = call i32 (ptr, ptr, ...) @fprintf(ptr noundef %20, ptr noundef @.str.2, i64 noundef %21) #11
  call void @graphviz_exit(i32 noundef 1) #12
  unreachable

23:                                               ; preds = %13
  %24 = load i64, ptr %7, align 8, !tbaa !44
  %25 = load i64, ptr %6, align 8, !tbaa !44
  %26 = icmp ugt i64 %24, %25
  br i1 %26, label %27, label %34

27:                                               ; preds = %23
  %28 = load ptr, ptr %8, align 8, !tbaa !43
  %29 = load i64, ptr %6, align 8, !tbaa !44
  %30 = getelementptr inbounds nuw i8, ptr %28, i64 %29
  %31 = load i64, ptr %7, align 8, !tbaa !44
  %32 = load i64, ptr %6, align 8, !tbaa !44
  %33 = sub i64 %31, %32
  call void @llvm.memset.p0.i64(ptr align 1 %30, i8 0, i64 %33, i1 false)
  br label %34

34:                                               ; preds = %27, %23
  %35 = load ptr, ptr %8, align 8, !tbaa !43
  store ptr %35, ptr %4, align 8
  call void @llvm.lifetime.end.p0(i64 8, ptr %8) #11
  br label %36

36:                                               ; preds = %34, %11
  %37 = load ptr, ptr %4, align 8
  ret ptr %37
}

; Function Attrs: inlinehint nounwind uwtable
define internal ptr @gv_recalloc(ptr noundef %0, i64 noundef %1, i64 noundef %2, i64 noundef %3) #1 {
  %5 = alloca ptr, align 8
  %6 = alloca i64, align 8
  %7 = alloca i64, align 8
  %8 = alloca i64, align 8
  store ptr %0, ptr %5, align 8, !tbaa !43
  store i64 %1, ptr %6, align 8, !tbaa !44
  store i64 %2, ptr %7, align 8, !tbaa !44
  store i64 %3, ptr %8, align 8, !tbaa !44
  %9 = load i64, ptr %7, align 8, !tbaa !44
  %10 = load i64, ptr %8, align 8, !tbaa !44
  %11 = udiv i64 -1, %10
  %12 = icmp ugt i64 %9, %11
  br i1 %12, label %13, label %18

13:                                               ; preds = %4
  %14 = load ptr, ptr @stderr, align 8, !tbaa !45
  %15 = load i64, ptr %7, align 8, !tbaa !44
  %16 = load i64, ptr %8, align 8, !tbaa !44
  %17 = call i32 (ptr, ptr, ...) @fprintf(ptr noundef %14, ptr noundef @.str.1, i64 noundef %15, i64 noundef %16) #11
  call void @graphviz_exit(i32 noundef 1) #12
  unreachable

18:                                               ; preds = %4
  %19 = load ptr, ptr %5, align 8, !tbaa !43
  %20 = load i64, ptr %6, align 8, !tbaa !44
  %21 = load i64, ptr %8, align 8, !tbaa !44
  %22 = mul i64 %20, %21
  %23 = load i64, ptr %7, align 8, !tbaa !44
  %24 = load i64, ptr %8, align 8, !tbaa !44
  %25 = mul i64 %23, %24
  %26 = call ptr @gv_realloc(ptr noundef %19, i64 noundef %22, i64 noundef %25)
  ret ptr %26
}

; Function Attrs: nounwind uwtable
define internal void @safe_list_append(ptr noundef %0, ptr noundef %1) #0 {
  %3 = alloca ptr, align 8
  %4 = alloca ptr, align 8
  %5 = alloca i64, align 8
  %6 = alloca i32, align 4
  store ptr %0, ptr %3, align 8, !tbaa !19
  store ptr %1, ptr %4, align 8, !tbaa !47
  call void @llvm.lifetime.start.p0(i64 8, ptr %5) #11
  store i64 0, ptr %5, align 8, !tbaa !44
  br label %7

7:                                                ; preds = %25, %2
  %8 = load i64, ptr %5, align 8, !tbaa !44
  %9 = load ptr, ptr %4, align 8, !tbaa !47
  %10 = getelementptr inbounds nuw %struct.elist, ptr %9, i32 0, i32 1
  %11 = load i64, ptr %10, align 8, !tbaa !14
  %12 = icmp ult i64 %8, %11
  br i1 %12, label %14, label %13

13:                                               ; preds = %7
  store i32 2, ptr %6, align 4
  br label %28

14:                                               ; preds = %7
  %15 = load ptr, ptr %3, align 8, !tbaa !19
  %16 = load ptr, ptr %4, align 8, !tbaa !47
  %17 = getelementptr inbounds nuw %struct.elist, ptr %16, i32 0, i32 0
  %18 = load ptr, ptr %17, align 8, !tbaa !18
  %19 = load i64, ptr %5, align 8, !tbaa !44
  %20 = getelementptr inbounds nuw ptr, ptr %18, i64 %19
  %21 = load ptr, ptr %20, align 8, !tbaa !19
  %22 = icmp eq ptr %15, %21
  br i1 %22, label %23, label %24

23:                                               ; preds = %14
  store i32 1, ptr %6, align 4
  br label %28

24:                                               ; preds = %14
  br label %25

25:                                               ; preds = %24
  %26 = load i64, ptr %5, align 8, !tbaa !44
  %27 = add i64 %26, 1
  store i64 %27, ptr %5, align 8, !tbaa !44
  br label %7, !llvm.loop !52

28:                                               ; preds = %23, %13
  call void @llvm.lifetime.end.p0(i64 8, ptr %5) #11
  %29 = load i32, ptr %6, align 4
  switch i32 %29, label %63 [
    i32 2, label %30
    i32 1, label %62
  ]

30:                                               ; preds = %28
  br label %31

31:                                               ; preds = %30
  %32 = load ptr, ptr %4, align 8, !tbaa !47
  %33 = getelementptr inbounds nuw %struct.elist, ptr %32, i32 0, i32 0
  %34 = load ptr, ptr %33, align 8, !tbaa !18
  %35 = load ptr, ptr %4, align 8, !tbaa !47
  %36 = getelementptr inbounds nuw %struct.elist, ptr %35, i32 0, i32 1
  %37 = load i64, ptr %36, align 8, !tbaa !14
  %38 = add i64 %37, 1
  %39 = load ptr, ptr %4, align 8, !tbaa !47
  %40 = getelementptr inbounds nuw %struct.elist, ptr %39, i32 0, i32 1
  %41 = load i64, ptr %40, align 8, !tbaa !14
  %42 = add i64 %41, 2
  %43 = call ptr @gv_recalloc(ptr noundef %34, i64 noundef %38, i64 noundef %42, i64 noundef 8)
  %44 = load ptr, ptr %4, align 8, !tbaa !47
  %45 = getelementptr inbounds nuw %struct.elist, ptr %44, i32 0, i32 0
  store ptr %43, ptr %45, align 8, !tbaa !18
  %46 = load ptr, ptr %3, align 8, !tbaa !19
  %47 = load ptr, ptr %4, align 8, !tbaa !47
  %48 = getelementptr inbounds nuw %struct.elist, ptr %47, i32 0, i32 0
  %49 = load ptr, ptr %48, align 8, !tbaa !18
  %50 = load ptr, ptr %4, align 8, !tbaa !47
  %51 = getelementptr inbounds nuw %struct.elist, ptr %50, i32 0, i32 1
  %52 = load i64, ptr %51, align 8, !tbaa !14
  %53 = add i64 %52, 1
  store i64 %53, ptr %51, align 8, !tbaa !14
  %54 = getelementptr inbounds nuw ptr, ptr %49, i64 %52
  store ptr %46, ptr %54, align 8, !tbaa !19
  %55 = load ptr, ptr %4, align 8, !tbaa !47
  %56 = getelementptr inbounds nuw %struct.elist, ptr %55, i32 0, i32 0
  %57 = load ptr, ptr %56, align 8, !tbaa !18
  %58 = load ptr, ptr %4, align 8, !tbaa !47
  %59 = getelementptr inbounds nuw %struct.elist, ptr %58, i32 0, i32 1
  %60 = load i64, ptr %59, align 8, !tbaa !14
  %61 = getelementptr inbounds nuw ptr, ptr %57, i64 %60
  store ptr null, ptr %61, align 8, !tbaa !19
  br label %62

62:                                               ; preds = %28, %31
  ret void

63:                                               ; preds = %28
  unreachable
}

; Function Attrs: nounwind uwtable
define void @safe_other_edge(ptr noundef %0) #0 {
  %2 = alloca ptr, align 8
  store ptr %0, ptr %2, align 8, !tbaa !19
  %3 = load ptr, ptr %2, align 8, !tbaa !19
  %4 = load ptr, ptr %2, align 8, !tbaa !19
  %5 = getelementptr inbounds nuw %struct.Agobj_s, ptr %4, i32 0, i32 0
  %6 = load i32, ptr %5, align 8
  %7 = and i32 %6, 3
  %8 = icmp eq i32 %7, 3
  br i1 %8, label %9, label %11

9:                                                ; preds = %1
  %10 = load ptr, ptr %2, align 8, !tbaa !19
  br label %14

11:                                               ; preds = %1
  %12 = load ptr, ptr %2, align 8, !tbaa !19
  %13 = getelementptr inbounds %struct.Agedge_s, ptr %12, i64 1
  br label %14

14:                                               ; preds = %11, %9
  %15 = phi ptr [ %10, %9 ], [ %13, %11 ]
  %16 = getelementptr inbounds nuw %struct.Agedge_s, ptr %15, i32 0, i32 3
  %17 = load ptr, ptr %16, align 8, !tbaa !21
  %18 = getelementptr inbounds nuw %struct.Agobj_s, ptr %17, i32 0, i32 1
  %19 = load ptr, ptr %18, align 8, !tbaa !8
  %20 = getelementptr inbounds nuw %struct.Agnodeinfo_t, ptr %19, i32 0, i32 39
  call void @safe_list_append(ptr noundef %3, ptr noundef %20)
  ret void
}