; Function Attrs: nounwind uwtable
define void @safe_other_edge(ptr noundef %0) local_unnamed_addr #1 {
  %2 = load i32, ptr %0, align 8
  %3 = and i32 %2, 3
  %4 = icmp eq i32 %3, 3
  %.idx = select i1 %4, i64 0, i64 64
  %5 = getelementptr inbounds nuw i8, ptr %0, i64 %.idx
  %6 = getelementptr inbounds nuw i8, ptr %5, i64 56
  %7 = load ptr, ptr %6, align 8, !tbaa !16
  %8 = getelementptr inbounds nuw i8, ptr %7, i64 16
  %9 = load ptr, ptr %8, align 8, !tbaa !3
  %10 = getelementptr inbounds nuw i8, ptr %9, i64 320
  %11 = getelementptr inbounds nuw i8, ptr %9, i64 328
  %12 = load i64, ptr %11, align 8, !tbaa !41
  %.not.i = icmp eq i64 %12, 0
  %.pre.i = load ptr, ptr %10, align 8, !tbaa !42
  br i1 %.not.i, label %.thread.i.thread, label %.lr.ph.i

13:                                               ; preds = %.lr.ph.i
  %14 = add nuw i64 %.01522.i, 1
  %exitcond.not.i = icmp eq i64 %14, %12
  br i1 %exitcond.not.i, label %._crit_edge.i, label %.lr.ph.i, !llvm.loop !46

.lr.ph.i:                                         ; preds = %1, %13
  %.01522.i = phi i64 [ %14, %13 ], [ 0, %1 ]
  %15 = getelementptr inbounds nuw ptr, ptr %.pre.i, i64 %.01522.i
  %16 = load ptr, ptr %15, align 8, !tbaa !12
  %17 = icmp eq ptr %0, %16
  br i1 %17, label %safe_list_append.exit, label %13

._crit_edge.i:                                    ; preds = %13
  %18 = add i64 %12, 2
  %19 = icmp ugt i64 %18, 2305843009213693951
  br i1 %19, label %20, label %.thread.i

20:                                               ; preds = %._crit_edge.i
  %21 = load ptr, ptr @stderr, align 8, !tbaa !37
  %22 = tail call i32 (ptr, ptr, ...) @fprintf(ptr noundef %21, ptr noundef nonnull @.str.1, i64 noundef %18, i64 noundef 8) #15
  tail call fastcc void @graphviz_exit() #16
  unreachable

.thread.i:                                        ; preds = %._crit_edge.i
  %23 = shl nuw i64 %18, 3
  %24 = icmp ne i64 %18, 0
  tail call void @llvm.assume(i1 %24)
  %25 = tail call ptr @realloc(ptr noundef nonnull %.pre.i, i64 noundef range(i64 0, -7) %23) #18
  %26 = icmp eq ptr %25, null
  br i1 %26, label %29, label %33

.thread.i.thread:                                 ; preds = %1
  %27 = tail call dereferenceable_or_null(16) ptr @realloc(ptr noundef %.pre.i, i64 noundef range(i64 0, -7) 16) #18
  %28 = icmp eq ptr %27, null
  br i1 %28, label %29, label %.thread

29:                                               ; preds = %.thread.i.thread, %.thread.i
  %30 = phi i64 [ 16, %.thread.i.thread ], [ %23, %.thread.i ]
  %31 = load ptr, ptr @stderr, align 8, !tbaa !37
  %32 = tail call i32 (ptr, ptr, ...) @fprintf(ptr noundef %31, ptr noundef nonnull @.str.2, i64 noundef range(i64 0, -7) %30) #15
  tail call fastcc void @graphviz_exit() #16
  unreachable

33:                                               ; preds = %.thread.i
  %34 = shl i64 %12, 3
  %35 = add i64 %34, 8
  %36 = icmp ugt i64 %23, %35
  br i1 %36, label %.thread, label %gv_recalloc.exit.i

.thread:                                          ; preds = %.thread.i.thread, %33
  %37 = phi i64 [ %23, %33 ], [ 16, %.thread.i.thread ]
  %38 = phi i64 [ %35, %33 ], [ 8, %.thread.i.thread ]
  %39 = phi ptr [ %25, %33 ], [ %27, %.thread.i.thread ]
  %40 = getelementptr inbounds nuw i8, ptr %39, i64 %38
  %41 = sub nuw i64 %37, %38
  tail call void @llvm.memset.p0.i64(ptr nonnull align 1 %40, i8 0, i64 %41, i1 false)
  br label %gv_recalloc.exit.i

gv_recalloc.exit.i:                               ; preds = %.thread, %33
  %.0.i.i.i = phi ptr [ %39, %.thread ], [ %25, %33 ]
  store ptr %.0.i.i.i, ptr %10, align 8, !tbaa !42
  %42 = load i64, ptr %11, align 8, !tbaa !41
  %43 = add i64 %42, 1
  store i64 %43, ptr %11, align 8, !tbaa !41
  %44 = getelementptr inbounds nuw ptr, ptr %.0.i.i.i, i64 %42
  store ptr %0, ptr %44, align 8, !tbaa !12
  %45 = getelementptr inbounds nuw ptr, ptr %.0.i.i.i, i64 %43
  store ptr null, ptr %45, align 8, !tbaa !12
  br label %safe_list_append.exit

safe_list_append.exit:                            ; preds = %.lr.ph.i, %gv_recalloc.exit.i
  ret void
}